target datalayout = "e-m:e-p270:32:32-p271:32:32-p272:64:64-i64:64-i128:128-f80:128-n8:16:32:64-S128"
target triple = "x86_64-pc-linux-gnu"

; Function Attrs: inlinehint nounwind uwtable
define internal void @dt_iop_image_copy_by_size(ptr noalias noundef %0, ptr noalias noundef %1, i64 noundef %2, i64 noundef %3, i64 noundef %4) #3 {
  %6 = alloca ptr, align 8
  %7 = alloca ptr, align 8
  %8 = alloca i64, align 8
  %9 = alloca i64, align 8
  %10 = alloca i64, align 8
  store ptr %0, ptr %6, align 8, !tbaa !50
  store ptr %1, ptr %7, align 8, !tbaa !50
  store i64 %2, ptr %8, align 8, !tbaa !52
  store i64 %3, ptr %9, align 8, !tbaa !52
  store i64 %4, ptr %10, align 8, !tbaa !52
  %11 = load ptr, ptr %6, align 8, !tbaa !50
  %12 = load ptr, ptr %7, align 8, !tbaa !50
  %13 = load i64, ptr %8, align 8, !tbaa !52
  %14 = load i64, ptr %9, align 8, !tbaa !52
  %15 = mul i64 %13, %14
  %16 = load i64, ptr %10, align 8, !tbaa !52
  %17 = mul i64 %15, %16
  call void @dt_iop_image_copy(ptr noundef %11, ptr noundef %12, i64 noundef %17)
  ret void
}

; Function Attrs: inlinehint nounwind uwtable
define internal ptr @dt_alloc_align_float(i64 noundef %0) #3 {
  %2 = alloca i64, align 8
  store i64 %0, ptr %2, align 8, !tbaa !52
  %3 = load i64, ptr %2, align 8, !tbaa !52
  %4 = mul i64 %3, 4
  %5 = call ptr @dt_alloc_aligned(i64 noundef %4)
  call void @llvm.assume(i1 true) [ "align"(ptr %5, i64 64) ]
  ret ptr %5
}

; Function Attrs: inlinehint nounwind uwtable
define internal i32 @_get_required_w(float noundef %0, float noundef %1) #3 {
  %3 = alloca float, align 4
  %4 = alloca float, align 4
  store float %0, ptr %3, align 4, !tbaa !34
  store float %1, ptr %4, align 4, !tbaa !34
  %5 = load float, ptr %3, align 4, !tbaa !34
  %6 = fmul reassoc nsz arcp contract afn float 2.000000e+00, %5
  %7 = load float, ptr %4, align 4, !tbaa !34
  %8 = fmul reassoc nsz arcp contract afn float %6, %7
  %9 = fadd reassoc nsz arcp contract afn float %8, 5.000000e-01
  %10 = fptosi float %9 to i32
  %11 = icmp sgt i32 1, %10
  br i1 %11, label %12, label %13

12:                                               ; preds = %2
  br label %20

13:                                               ; preds = %2
  %14 = load float, ptr %3, align 4, !tbaa !34
  %15 = fmul reassoc nsz arcp contract afn float 2.000000e+00, %14
  %16 = load float, ptr %4, align 4, !tbaa !34
  %17 = fmul reassoc nsz arcp contract afn float %15, %16
  %18 = fadd reassoc nsz arcp contract afn float %17, 5.000000e-01
  %19 = fptosi float %18 to i32
  br label %20

20:                                               ; preds = %13, %12
  %21 = phi i32 [ 1, %12 ], [ %19, %13 ]
  ret i32 %21
}

; Function Attrs: nounwind uwtable
define internal void @_develop_blend_process_feather(ptr noundef %0, ptr noundef %1, i64 noundef %2, i64 noundef %3, i32 noundef %4, float noundef %5, float noundef %6, float noundef %7, float noundef %8) #0 {
  %10 = alloca ptr, align 8
  %11 = alloca ptr, align 8
  %12 = alloca i64, align 8
  %13 = alloca i64, align 8
  %14 = alloca i32, align 4
  %15 = alloca float, align 4
  %16 = alloca float, align 4
  %17 = alloca float, align 4
  %18 = alloca float, align 4
  %19 = alloca i32, align 4
  %20 = alloca ptr, align 8
  store ptr %0, ptr %10, align 8, !tbaa !50
  store ptr %1, ptr %11, align 8, !tbaa !50
  store i64 %2, ptr %12, align 8, !tbaa !52
  store i64 %3, ptr %13, align 8, !tbaa !52
  store i32 %4, ptr %14, align 4, !tbaa !11
  store float %5, ptr %15, align 4, !tbaa !34
  store float %6, ptr %16, align 4, !tbaa !34
  store float %7, ptr %17, align 4, !tbaa !34
  store float %8, ptr %18, align 4, !tbaa !34
  call void @llvm.lifetime.start.p0(i64 4, ptr %19) #10
  %21 = load float, ptr %16, align 4, !tbaa !34
  %22 = load float, ptr %17, align 4, !tbaa !34
  %23 = call i32 @_get_required_w(float noundef %21, float noundef %22)
  store i32 %23, ptr %19, align 4, !tbaa !11
  call void @llvm.lifetime.start.p0(i64 8, ptr %20) #10
  %24 = load i64, ptr %12, align 8, !tbaa !52
  %25 = load i64, ptr %13, align 8, !tbaa !52
  %26 = mul i64 %24, %25
  %27 = call ptr @dt_alloc_align_float(i64 noundef %26)
  store ptr %27, ptr %20, align 8, !tbaa !50
  %28 = load ptr, ptr %20, align 8, !tbaa !50
  %29 = icmp ne ptr %28, null
  br i1 %29, label %30, label %47

30:                                               ; preds = %9
  %31 = load ptr, ptr %20, align 8, !tbaa !50
  %32 = load ptr, ptr %11, align 8, !tbaa !50
  %33 = load i64, ptr %12, align 8, !tbaa !52
  %34 = load i64, ptr %13, align 8, !tbaa !52
  call void @dt_iop_image_copy_by_size(ptr noundef %31, ptr noundef %32, i64 noundef %33, i64 noundef %34, i64 noundef 1)
  %35 = load ptr, ptr %10, align 8, !tbaa !50
  %36 = load ptr, ptr %20, align 8, !tbaa !50
  %37 = load ptr, ptr %11, align 8, !tbaa !50
  %38 = load i64, ptr %12, align 8, !tbaa !52
  %39 = trunc i64 %38 to i32
  %40 = load i64, ptr %13, align 8, !tbaa !52
  %41 = trunc i64 %40 to i32
  %42 = load i32, ptr %14, align 4, !tbaa !11
  %43 = load i32, ptr %19, align 4, !tbaa !11
  %44 = load float, ptr %18, align 4, !tbaa !34
  %45 = load float, ptr %15, align 4, !tbaa !34
  call void @guided_filter(ptr noundef %35, ptr noundef %36, ptr noundef %37, i32 noundef %39, i32 noundef %41, i32 noundef %42, i32 noundef %43, float noundef %44, float noundef %45, float noundef 0.000000e+00, float noundef 1.000000e+00)
  %46 = load ptr, ptr %20, align 8, !tbaa !50
  call void @free(ptr noundef %46) #10
  br label %47

47:                                               ; preds = %30, %9
  call void @llvm.lifetime.end.p0(i64 8, ptr %20) #10
  call void @llvm.lifetime.end.p0(i64 4, ptr %19) #10
  ret void
}