; Function Attrs: nounwind uwtable
define internal fastcc void @_develop_blend_process_feather(ptr noundef %0, ptr noundef nonnull %1, i64 noundef range(i64 -2147483648, 2147483648) %2, i64 noundef range(i64 -2147483648, 2147483648) %3, i32 noundef %4, float noundef %5, float noundef %6, float noundef %7, float noundef %8) unnamed_addr #0 {
  %10 = mul nsw i64 %3, %2
  %11 = shl i64 %10, 2
  %12 = tail call ptr @dt_alloc_aligned(i64 noundef %11) #17
  call void @llvm.assume(i1 true) [ "align"(ptr %12, i64 64) ]
  %.not = icmp eq ptr %12, null
  br i1 %.not, label %20, label %13

13:                                               ; preds = %9
  %14 = fmul reassoc nsz arcp contract afn float %6, 2.000000e+00
  %15 = fmul reassoc nsz arcp contract afn float %14, %7
  %16 = fadd reassoc nsz arcp contract afn float %15, 5.000000e-01
  %17 = fptosi float %16 to i32
  %spec.select.i = tail call range(i32 1, -2147483648) i32 @llvm.smax.i32(i32 %17, i32 1)
  tail call void @dt_iop_image_copy(ptr noundef nonnull %12, ptr noundef nonnull %1, i64 noundef %10) #17
  %18 = trunc nsw i64 %2 to i32
  %19 = trunc nsw i64 %3 to i32
  tail call void @guided_filter(ptr noundef %0, ptr noundef nonnull %12, ptr noundef nonnull %1, i32 noundef %18, i32 noundef %19, i32 noundef %4, i32 noundef %spec.select.i, float noundef %8, float noundef %5, float noundef 0.000000e+00, float noundef 1.000000e+00) #17
  tail call void @free(ptr noundef nonnull %12) #17
  br label %20

20:                                               ; preds = %13, %9
  ret void
}